target datalayout = "e-m:e-p270:32:32-p271:32:32-p272:64:64-i64:64-i128:128-f80:128-n8:16:32:64-S128"
target triple = "x86_64-pc-linux-gnu"

; Function Attrs: nounwind uwtable
define internal void @inverse4(ptr noundef %0) #1 {
  %2 = alloca ptr, align 8
  %3 = alloca i32, align 4
  %4 = alloca i32, align 4
  %5 = alloca i32, align 4
  %6 = alloca i32, align 4
  store ptr %0, ptr %2, align 8, !tbaa !45
  call void @llvm.lifetime.start.p0(i64 4, ptr %3) #11
  %7 = load ptr, ptr %2, align 8, !tbaa !45
  %8 = getelementptr inbounds i32, ptr %7, i64 0
  %9 = load i32, ptr %8, align 4, !tbaa !40
  %10 = load ptr, ptr %2, align 8, !tbaa !45
  %11 = getelementptr inbounds i32, ptr %10, i64 2
  %12 = load i32, ptr %11, align 4, !tbaa !40
  %13 = add i32 %9, %12
  store i32 %13, ptr %3, align 4, !tbaa !40
  call void @llvm.lifetime.start.p0(i64 4, ptr %4) #11
  %14 = load ptr, ptr %2, align 8, !tbaa !45
  %15 = getelementptr inbounds i32, ptr %14, i64 0
  %16 = load i32, ptr %15, align 4, !tbaa !40
  %17 = load ptr, ptr %2, align 8, !tbaa !45
  %18 = getelementptr inbounds i32, ptr %17, i64 2
  %19 = load i32, ptr %18, align 4, !tbaa !40
  %20 = sub i32 %16, %19
  store i32 %20, ptr %4, align 4, !tbaa !40
  call void @llvm.lifetime.start.p0(i64 4, ptr %5) #11
  %21 = load ptr, ptr %2, align 8, !tbaa !45
  %22 = getelementptr inbounds i32, ptr %21, i64 1
  %23 = load i32, ptr %22, align 4, !tbaa !40
  %24 = load ptr, ptr %2, align 8, !tbaa !45
  %25 = getelementptr inbounds i32, ptr %24, i64 3
  %26 = load i32, ptr %25, align 4, !tbaa !40
  %27 = ashr i32 %26, 1
  %28 = add i32 %23, %27
  store i32 %28, ptr %5, align 4, !tbaa !40
  call void @llvm.lifetime.start.p0(i64 4, ptr %6) #11
  %29 = load ptr, ptr %2, align 8, !tbaa !45
  %30 = getelementptr inbounds i32, ptr %29, i64 1
  %31 = load i32, ptr %30, align 4, !tbaa !40
  %32 = ashr i32 %31, 1
  %33 = load ptr, ptr %2, align 8, !tbaa !45
  %34 = getelementptr inbounds i32, ptr %33, i64 3
  %35 = load i32, ptr %34, align 4, !tbaa !40
  %36 = sub i32 %32, %35
  store i32 %36, ptr %6, align 4, !tbaa !40
  %37 = load i32, ptr %3, align 4, !tbaa !40
  %38 = load i32, ptr %5, align 4, !tbaa !40
  %39 = add i32 %37, %38
  %40 = load ptr, ptr %2, align 8, !tbaa !45
  %41 = getelementptr inbounds i32, ptr %40, i64 0
  store i32 %39, ptr %41, align 4, !tbaa !40
  %42 = load i32, ptr %4, align 4, !tbaa !40
  %43 = load i32, ptr %6, align 4, !tbaa !40
  %44 = add i32 %42, %43
  %45 = load ptr, ptr %2, align 8, !tbaa !45
  %46 = getelementptr inbounds i32, ptr %45, i64 1
  store i32 %44, ptr %46, align 4, !tbaa !40
  %47 = load i32, ptr %4, align 4, !tbaa !40
  %48 = load i32, ptr %6, align 4, !tbaa !40
  %49 = sub i32 %47, %48
  %50 = load ptr, ptr %2, align 8, !tbaa !45
  %51 = getelementptr inbounds i32, ptr %50, i64 2
  store i32 %49, ptr %51, align 4, !tbaa !40
  %52 = load i32, ptr %3, align 4, !tbaa !40
  %53 = load i32, ptr %5, align 4, !tbaa !40
  %54 = sub i32 %52, %53
  %55 = load ptr, ptr %2, align 8, !tbaa !45
  %56 = getelementptr inbounds i32, ptr %55, i64 3
  store i32 %54, ptr %56, align 4, !tbaa !40
  call void @llvm.lifetime.end.p0(i64 4, ptr %6) #11
  call void @llvm.lifetime.end.p0(i64 4, ptr %5) #11
  call void @llvm.lifetime.end.p0(i64 4, ptr %4) #11
  call void @llvm.lifetime.end.p0(i64 4, ptr %3) #11
  ret void
}

; Function Attrs: nounwind uwtable
define internal void @idct(ptr noundef %0, i32 noundef %1) #1 {
  %3 = alloca ptr, align 8
  %4 = alloca i32, align 4
  %5 = alloca i32, align 4
  %6 = alloca i32, align 4
  %7 = alloca i32, align 4
  %8 = alloca i32, align 4
  %9 = alloca i32, align 4
  %10 = alloca i32, align 4
  %11 = alloca i32, align 4
  %12 = alloca i32, align 4
  %13 = alloca [4 x i32], align 16
  %14 = alloca i32, align 4
  store ptr %0, ptr %3, align 8, !tbaa !45
  store i32 %1, ptr %4, align 4, !tbaa !40
  call void @llvm.lifetime.start.p0(i64 4, ptr %5) #11
  call void @llvm.lifetime.start.p0(i64 4, ptr %6) #11
  call void @llvm.lifetime.start.p0(i64 4, ptr %7) #11
  call void @llvm.lifetime.start.p0(i64 4, ptr %8) #11
  call void @llvm.lifetime.start.p0(i64 4, ptr %9) #11
  call void @llvm.lifetime.start.p0(i64 4, ptr %10) #11
  call void @llvm.lifetime.start.p0(i64 4, ptr %11) #11
  call void @llvm.lifetime.start.p0(i64 4, ptr %12) #11
  call void @llvm.lifetime.start.p0(i64 16, ptr %13) #11
  %15 = load i32, ptr %4, align 4, !tbaa !40
  %16 = icmp eq i32 %15, 4
  br i1 %16, label %17, label %19

17:                                               ; preds = %2
  %18 = load ptr, ptr %3, align 8, !tbaa !45
  call void @inverse4(ptr noundef %18)
  store i32 1, ptr %14, align 4
  br label %165

19:                                               ; preds = %2
  %20 = load ptr, ptr %3, align 8, !tbaa !45
  %21 = getelementptr inbounds i32, ptr %20, i64 0
  %22 = load i32, ptr %21, align 4, !tbaa !40
  %23 = getelementptr inbounds [4 x i32], ptr %13, i64 0, i64 0
  store i32 %22, ptr %23, align 16, !tbaa !40
  %24 = load ptr, ptr %3, align 8, !tbaa !45
  %25 = getelementptr inbounds i32, ptr %24, i64 2
  %26 = load i32, ptr %25, align 4, !tbaa !40
  %27 = getelementptr inbounds [4 x i32], ptr %13, i64 0, i64 1
  store i32 %26, ptr %27, align 4, !tbaa !40
  %28 = load ptr, ptr %3, align 8, !tbaa !45
  %29 = getelementptr inbounds i32, ptr %28, i64 4
  %30 = load i32, ptr %29, align 4, !tbaa !40
  %31 = getelementptr inbounds [4 x i32], ptr %13, i64 0, i64 2
  store i32 %30, ptr %31, align 8, !tbaa !40
  %32 = load ptr, ptr %3, align 8, !tbaa !45
  %33 = getelementptr inbounds i32, ptr %32, i64 6
  %34 = load i32, ptr %33, align 4, !tbaa !40
  %35 = getelementptr inbounds [4 x i32], ptr %13, i64 0, i64 3
  store i32 %34, ptr %35, align 4, !tbaa !40
  %36 = getelementptr inbounds [4 x i32], ptr %13, i64 0, i64 0
  call void @inverse4(ptr noundef %36)
  %37 = load ptr, ptr %3, align 8, !tbaa !45
  %38 = getelementptr inbounds i32, ptr %37, i64 7
  %39 = load i32, ptr %38, align 4, !tbaa !40
  %40 = load ptr, ptr %3, align 8, !tbaa !45
  %41 = getelementptr inbounds i32, ptr %40, i64 1
  %42 = load i32, ptr %41, align 4, !tbaa !40
  %43 = add i32 %39, %42
  %44 = load ptr, ptr %3, align 8, !tbaa !45
  %45 = getelementptr inbounds i32, ptr %44, i64 3
  %46 = load i32, ptr %45, align 4, !tbaa !40
  %47 = sub i32 %43, %46
  %48 = load ptr, ptr %3, align 8, !tbaa !45
  %49 = getelementptr inbounds i32, ptr %48, i64 3
  %50 = load i32, ptr %49, align 4, !tbaa !40
  %51 = ashr i32 %50, 1
  %52 = sub i32 %47, %51
  store i32 %52, ptr %5, align 4, !tbaa !40
  %53 = load ptr, ptr %3, align 8, !tbaa !45
  %54 = getelementptr inbounds i32, ptr %53, i64 7
  %55 = load i32, ptr %54, align 4, !tbaa !40
  %56 = load ptr, ptr %3, align 8, !tbaa !45
  %57 = getelementptr inbounds i32, ptr %56, i64 1
  %58 = load i32, ptr %57, align 4, !tbaa !40
  %59 = sub i32 %55, %58
  %60 = load ptr, ptr %3, align 8, !tbaa !45
  %61 = getelementptr inbounds i32, ptr %60, i64 5
  %62 = load i32, ptr %61, align 4, !tbaa !40
  %63 = add i32 %59, %62
  %64 = load ptr, ptr %3, align 8, !tbaa !45
  %65 = getelementptr inbounds i32, ptr %64, i64 5
  %66 = load i32, ptr %65, align 4, !tbaa !40
  %67 = ashr i32 %66, 1
  %68 = add i32 %63, %67
  store i32 %68, ptr %6, align 4, !tbaa !40
  %69 = load ptr, ptr %3, align 8, !tbaa !45
  %70 = getelementptr inbounds i32, ptr %69, i64 5
  %71 = load i32, ptr %70, align 4, !tbaa !40
  %72 = load ptr, ptr %3, align 8, !tbaa !45
  %73 = getelementptr inbounds i32, ptr %72, i64 3
  %74 = load i32, ptr %73, align 4, !tbaa !40
  %75 = sub i32 %71, %74
  %76 = load ptr, ptr %3, align 8, !tbaa !45
  %77 = getelementptr inbounds i32, ptr %76, i64 7
  %78 = load i32, ptr %77, align 4, !tbaa !40
  %79 = sub i32 %75, %78
  %80 = load ptr, ptr %3, align 8, !tbaa !45
  %81 = getelementptr inbounds i32, ptr %80, i64 7
  %82 = load i32, ptr %81, align 4, !tbaa !40
  %83 = ashr i32 %82, 1
  %84 = sub i32 %79, %83
  store i32 %84, ptr %7, align 4, !tbaa !40
  %85 = load ptr, ptr %3, align 8, !tbaa !45
  %86 = getelementptr inbounds i32, ptr %85, i64 5
  %87 = load i32, ptr %86, align 4, !tbaa !40
  %88 = load ptr, ptr %3, align 8, !tbaa !45
  %89 = getelementptr inbounds i32, ptr %88, i64 3
  %90 = load i32, ptr %89, align 4, !tbaa !40
  %91 = add i32 %87, %90
  %92 = load ptr, ptr %3, align 8, !tbaa !45
  %93 = getelementptr inbounds i32, ptr %92, i64 1
  %94 = load i32, ptr %93, align 4, !tbaa !40
  %95 = add i32 %91, %94
  %96 = load ptr, ptr %3, align 8, !tbaa !45
  %97 = getelementptr inbounds i32, ptr %96, i64 1
  %98 = load i32, ptr %97, align 4, !tbaa !40
  %99 = ashr i32 %98, 1
  %100 = add i32 %95, %99
  store i32 %100, ptr %8, align 4, !tbaa !40
  %101 = load i32, ptr %7, align 4, !tbaa !40
  %102 = load i32, ptr %8, align 4, !tbaa !40
  %103 = ashr i32 %102, 2
  %104 = add i32 %101, %103
  store i32 %104, ptr %9, align 4, !tbaa !40
  %105 = load i32, ptr %5, align 4, !tbaa !40
  %106 = load i32, ptr %6, align 4, !tbaa !40
  %107 = ashr i32 %106, 2
  %108 = add i32 %105, %107
  store i32 %108, ptr %10, align 4, !tbaa !40
  %109 = load i32, ptr %5, align 4, !tbaa !40
  %110 = ashr i32 %109, 2
  %111 = load i32, ptr %6, align 4, !tbaa !40
  %112 = sub i32 %110, %111
  store i32 %112, ptr %11, align 4, !tbaa !40
  %113 = load i32, ptr %8, align 4, !tbaa !40
  %114 = load i32, ptr %7, align 4, !tbaa !40
  %115 = ashr i32 %114, 2
  %116 = sub i32 %113, %115
  store i32 %116, ptr %12, align 4, !tbaa !40
  %117 = getelementptr inbounds [4 x i32], ptr %13, i64 0, i64 0
  %118 = load i32, ptr %117, align 16, !tbaa !40
  %119 = load i32, ptr %12, align 4, !tbaa !40
  %120 = add i32 %118, %119
  %121 = load ptr, ptr %3, align 8, !tbaa !45
  %122 = getelementptr inbounds i32, ptr %121, i64 0
  store i32 %120, ptr %122, align 4, !tbaa !40
  %123 = getelementptr inbounds [4 x i32], ptr %13, i64 0, i64 1
  %124 = load i32, ptr %123, align 4, !tbaa !40
  %125 = load i32, ptr %11, align 4, !tbaa !40
  %126 = add i32 %124, %125
  %127 = load ptr, ptr %3, align 8, !tbaa !45
  %128 = getelementptr inbounds i32, ptr %127, i64 1
  store i32 %126, ptr %128, align 4, !tbaa !40
  %129 = getelementptr inbounds [4 x i32], ptr %13, i64 0, i64 2
  %130 = load i32, ptr %129, align 8, !tbaa !40
  %131 = load i32, ptr %10, align 4, !tbaa !40
  %132 = add i32 %130, %131
  %133 = load ptr, ptr %3, align 8, !tbaa !45
  %134 = getelementptr inbounds i32, ptr %133, i64 2
  store i32 %132, ptr %134, align 4, !tbaa !40
  %135 = getelementptr inbounds [4 x i32], ptr %13, i64 0, i64 3
  %136 = load i32, ptr %135, align 4, !tbaa !40
  %137 = load i32, ptr %9, align 4, !tbaa !40
  %138 = add i32 %136, %137
  %139 = load ptr, ptr %3, align 8, !tbaa !45
  %140 = getelementptr inbounds i32, ptr %139, i64 3
  store i32 %138, ptr %140, align 4, !tbaa !40
  %141 = getelementptr inbounds [4 x i32], ptr %13, i64 0, i64 3
  %142 = load i32, ptr %141, align 4, !tbaa !40
  %143 = load i32, ptr %9, align 4, !tbaa !40
  %144 = sub i32 %142, %143
  %145 = load ptr, ptr %3, align 8, !tbaa !45
  %146 = getelementptr inbounds i32, ptr %145, i64 4
  store i32 %144, ptr %146, align 4, !tbaa !40
  %147 = getelementptr inbounds [4 x i32], ptr %13, i64 0, i64 2
  %148 = load i32, ptr %147, align 8, !tbaa !40
  %149 = load i32, ptr %10, align 4, !tbaa !40
  %150 = sub i32 %148, %149
  %151 = load ptr, ptr %3, align 8, !tbaa !45
  %152 = getelementptr inbounds i32, ptr %151, i64 5
  store i32 %150, ptr %152, align 4, !tbaa !40
  %153 = getelementptr inbounds [4 x i32], ptr %13, i64 0, i64 1
  %154 = load i32, ptr %153, align 4, !tbaa !40
  %155 = load i32, ptr %11, align 4, !tbaa !40
  %156 = sub i32 %154, %155
  %157 = load ptr, ptr %3, align 8, !tbaa !45
  %158 = getelementptr inbounds i32, ptr %157, i64 6
  store i32 %156, ptr %158, align 4, !tbaa !40
  %159 = getelementptr inbounds [4 x i32], ptr %13, i64 0, i64 0
  %160 = load i32, ptr %159, align 16, !tbaa !40
  %161 = load i32, ptr %12, align 4, !tbaa !40
  %162 = sub i32 %160, %161
  %163 = load ptr, ptr %3, align 8, !tbaa !45
  %164 = getelementptr inbounds i32, ptr %163, i64 7
  store i32 %162, ptr %164, align 4, !tbaa !40
  store i32 0, ptr %14, align 4
  br label %165

165:                                              ; preds = %19, %17
  call void @llvm.lifetime.end.p0(i64 16, ptr %13) #11
  call void @llvm.lifetime.end.p0(i64 4, ptr %12) #11
  call void @llvm.lifetime.end.p0(i64 4, ptr %11) #11
  call void @llvm.lifetime.end.p0(i64 4, ptr %10) #11
  call void @llvm.lifetime.end.p0(i64 4, ptr %9) #11
  call void @llvm.lifetime.end.p0(i64 4, ptr %8) #11
  call void @llvm.lifetime.end.p0(i64 4, ptr %7) #11
  call void @llvm.lifetime.end.p0(i64 4, ptr %6) #11
  call void @llvm.lifetime.end.p0(i64 4, ptr %5) #11
  %166 = load i32, ptr %14, align 4
  switch i32 %166, label %168 [
    i32 0, label %167
    i32 1, label %167
  ]

167:                                              ; preds = %165, %165
  ret void

168:                                              ; preds = %165
  unreachable
}