; Function Attrs: mustprogress nofree norecurse nosync nounwind willreturn memory(argmem: readwrite) uwtable
define internal fastcc void @idct(ptr noundef nonnull captures(none) %0, i32 noundef range(i32 4, 17) %1) unnamed_addr #8 {
  %3 = icmp eq i32 %1, 4
  %4 = load i32, ptr %0, align 4, !tbaa !61
  %5 = getelementptr inbounds nuw i8, ptr %0, i64 8
  %6 = load i32, ptr %5, align 4, !tbaa !61
  br i1 %3, label %7, label %22

7:                                                ; preds = %2
  %8 = add i32 %6, %4
  %9 = sub i32 %4, %6
  %10 = getelementptr inbounds nuw i8, ptr %0, i64 4
  %11 = load i32, ptr %10, align 4, !tbaa !61
  %12 = getelementptr inbounds nuw i8, ptr %0, i64 12
  %13 = load i32, ptr %12, align 4, !tbaa !61
  %14 = ashr i32 %13, 1
  %15 = add i32 %14, %11
  %16 = ashr i32 %11, 1
  %17 = sub i32 %16, %13
  %18 = add i32 %15, %8
  store i32 %18, ptr %0, align 4, !tbaa !61
  %19 = add i32 %17, %9
  store i32 %19, ptr %10, align 4, !tbaa !61
  %20 = sub i32 %9, %17
  store i32 %20, ptr %5, align 4, !tbaa !61
  %21 = sub i32 %8, %15
  store i32 %21, ptr %12, align 4, !tbaa !61
  br label %76

22:                                               ; preds = %2
  %23 = getelementptr inbounds nuw i8, ptr %0, i64 16
  %24 = load i32, ptr %23, align 4, !tbaa !61
  %25 = getelementptr inbounds nuw i8, ptr %0, i64 24
  %26 = load i32, ptr %25, align 4, !tbaa !61
  %27 = add i32 %24, %4
  %28 = sub i32 %4, %24
  %29 = ashr i32 %26, 1
  %30 = add i32 %29, %6
  %31 = ashr i32 %6, 1
  %32 = sub i32 %31, %26
  %33 = add i32 %30, %27
  %34 = add i32 %32, %28
  %35 = sub i32 %28, %32
  %36 = sub i32 %27, %30
  %37 = getelementptr inbounds nuw i8, ptr %0, i64 28
  %38 = load i32, ptr %37, align 4, !tbaa !61
  %39 = getelementptr inbounds nuw i8, ptr %0, i64 4
  %40 = load i32, ptr %39, align 4, !tbaa !61
  %41 = getelementptr inbounds nuw i8, ptr %0, i64 12
  %42 = load i32, ptr %41, align 4, !tbaa !61
  %43 = ashr i32 %42, 1
  %.neg53 = add i32 %40, %38
  %44 = add i32 %42, %43
  %45 = sub i32 %.neg53, %44
  %46 = sub i32 %38, %40
  %47 = getelementptr inbounds nuw i8, ptr %0, i64 20
  %48 = load i32, ptr %47, align 4, !tbaa !61
  %49 = add i32 %46, %48
  %50 = ashr i32 %48, 1
  %51 = add i32 %49, %50
  %52 = ashr i32 %38, 1
  %53 = add i32 %52, %38
  %54 = add i32 %53, %42
  %55 = sub i32 %48, %54
  %56 = ashr i32 %40, 1
  %57 = add i32 %42, %40
  %58 = add i32 %57, %56
  %59 = add i32 %58, %48
  %60 = ashr i32 %59, 2
  %61 = add i32 %60, %55
  %62 = ashr i32 %51, 2
  %63 = add i32 %62, %45
  %64 = ashr i32 %45, 2
  %65 = sub i32 %64, %51
  %66 = ashr i32 %55, 2
  %67 = sub i32 %59, %66
  %68 = add i32 %67, %33
  store i32 %68, ptr %0, align 4, !tbaa !61
  %69 = add i32 %65, %34
  store i32 %69, ptr %39, align 4, !tbaa !61
  %70 = add i32 %63, %35
  store i32 %70, ptr %5, align 4, !tbaa !61
  %71 = add i32 %61, %36
  store i32 %71, ptr %41, align 4, !tbaa !61
  %72 = sub i32 %36, %61
  store i32 %72, ptr %23, align 4, !tbaa !61
  %73 = sub i32 %35, %63
  store i32 %73, ptr %47, align 4, !tbaa !61
  %74 = sub i32 %34, %65
  store i32 %74, ptr %25, align 4, !tbaa !61
  %75 = sub i32 %33, %67
  store i32 %75, ptr %37, align 4, !tbaa !61
  br label %76

76:                                               ; preds = %22, %7
  ret void
}